target datalayout = "e-m:e-p270:32:32-p271:32:32-p272:64:64-i64:64-i128:128-f80:128-n8:16:32:64-S128"
target triple = "x86_64-pc-linux-gnu"

@_ZN4base11CommandLine28current_process_commandline_E = global ptr null, align 8
@_ZN4base11CommandLineC1ENS0_9NoProgramE = unnamed_addr alias void (ptr, i32), ptr @_ZN4base11CommandLineC2ENS0_9NoProgramE

; Function Attrs: mustprogress uwtable
define noundef zeroext i1 @_ZN4base11CommandLine4InitEiPKPKc(i32 noundef %0, ptr noundef %1) #0 align 2 personality ptr @__gxx_personality_v0 {
  %3 = alloca i1, align 1
  %4 = alloca i32, align 4
  %5 = alloca ptr, align 8
  %6 = alloca ptr, align 8
  %7 = alloca i32, align 4
  store i32 %0, ptr %4, align 4, !tbaa !45
  store ptr %1, ptr %5, align 8, !tbaa !47
  %8 = load ptr, ptr @_ZN4base11CommandLine28current_process_commandline_E, align 8, !tbaa !3
  %9 = icmp ne ptr %8, null
  br i1 %9, label %10, label %11

10:                                               ; preds = %2
  store i1 false, ptr %3, align 1
  br label %21

11:                                               ; preds = %2
  %12 = call noalias noundef nonnull ptr @_Znwm(i64 noundef 128) #18
  invoke void @_ZN4base11CommandLineC1ENS0_9NoProgramE(ptr noundef nonnull align 8 dereferenceable(128) %12, i32 noundef 0)
          to label %13 unwind label %17

13:                                               ; preds = %11
  store ptr %12, ptr @_ZN4base11CommandLine28current_process_commandline_E, align 8, !tbaa !3
  %14 = load ptr, ptr @_ZN4base11CommandLine28current_process_commandline_E, align 8, !tbaa !3
  %15 = load i32, ptr %4, align 4, !tbaa !45
  %16 = load ptr, ptr %5, align 8, !tbaa !47
  call void @_ZN4base11CommandLine12InitFromArgvEiPKPKc(ptr noundef nonnull align 8 dereferenceable(128) %14, i32 noundef %15, ptr noundef %16)
  store i1 true, ptr %3, align 1
  br label %21

17:                                               ; preds = %11
  %18 = landingpad { ptr, i32 }
          cleanup
  %19 = extractvalue { ptr, i32 } %18, 0
  store ptr %19, ptr %6, align 8
  %20 = extractvalue { ptr, i32 } %18, 1
  store i32 %20, ptr %7, align 4
  call void @_ZdlPv(ptr noundef %12) #19
  br label %23

21:                                               ; preds = %13, %10
  %22 = load i1, ptr %3, align 1
  ret i1 %22

23:                                               ; preds = %17
  %24 = load ptr, ptr %6, align 8
  %25 = load i32, ptr %7, align 4
  %26 = insertvalue { ptr, i32 } poison, ptr %24, 0
  %27 = insertvalue { ptr, i32 } %26, i32 %25, 1
  resume { ptr, i32 } %27
}