; Function Attrs: mustprogress uwtable
define noundef zeroext i1 @_ZN4base11CommandLine4InitEiPKPKc(i32 noundef %0, ptr noundef readonly captures(none) %1) local_unnamed_addr #0 align 2 personality ptr @__gxx_personality_v0 {
  %3 = load ptr, ptr @_ZN4base11CommandLine28current_process_commandline_E, align 8, !tbaa !63
  %.not = icmp eq ptr %3, null
  br i1 %.not, label %4, label %9

4:                                                ; preds = %2
  %5 = tail call noalias noundef nonnull dereferenceable(128) ptr @_Znwm(i64 noundef 128) #20
  invoke void @_ZN4base11CommandLineC1ENS0_9NoProgramE(ptr noundef nonnull align 8 dereferenceable(128) %5, i32 noundef 0)
          to label %6 unwind label %7

6:                                                ; preds = %4
  store ptr %5, ptr @_ZN4base11CommandLine28current_process_commandline_E, align 8, !tbaa !63
  tail call void @_ZN4base11CommandLine12InitFromArgvEiPKPKc(ptr noundef nonnull align 8 dereferenceable(128) %5, i32 noundef %0, ptr noundef %1)
  br label %9

7:                                                ; preds = %4
  %8 = landingpad { ptr, i32 }
          cleanup
  tail call void @_ZdlPv(ptr noundef nonnull %5) #23
  resume { ptr, i32 } %8

9:                                                ; preds = %2, %6
  ret i1 %.not
}